; Function Attrs: nounwind uwtable
define ptr @l_Lean_KVMap_getSyntax(ptr noundef %0, ptr noundef %1, ptr noundef %2) local_unnamed_addr #0 {
  %4 = tail call ptr @l_Lean_KVMap_findCore(ptr noundef %0, ptr noundef %1)
  %5 = ptrtoint ptr %4 to i64
  %6 = and i64 %5, 1
  %.not.i26 = icmp eq i64 %6, 0
  br i1 %.not.i26, label %10, label %7

7:                                                ; preds = %3
  %8 = lshr i64 %5, 1
  %9 = trunc i64 %8 to i32
  br label %lean_obj_tag.exit

10:                                               ; preds = %3
  %11 = getelementptr i8, ptr %4, i64 4
  %.val.i = load i32, ptr %11, align 4
  %12 = lshr i32 %.val.i, 24
  br label %lean_obj_tag.exit

lean_obj_tag.exit:                                ; preds = %7, %10
  %.0.i = phi i32 [ %9, %7 ], [ %12, %10 ]
  %13 = icmp eq i32 %.0.i, 0
  br i1 %13, label %14, label %23

14:                                               ; preds = %lean_obj_tag.exit
  %15 = ptrtoint ptr %2 to i64
  %16 = and i64 %15, 1
  %.not45 = icmp eq i64 %16, 0
  br i1 %.not45, label %17, label %lean_inc.exit19

17:                                               ; preds = %14
  %.val.i27 = load i32, ptr %2, align 4, !tbaa !8
  %18 = icmp sgt i32 %.val.i27, 0
  br i1 %18, label %19, label %21, !prof !11

19:                                               ; preds = %17
  %20 = add nuw i32 %.val.i27, 1
  store i32 %20, ptr %2, align 4, !tbaa !8
  br label %lean_inc.exit19

21:                                               ; preds = %17
  %.not.i28 = icmp eq i32 %.val.i27, 0
  br i1 %.not.i28, label %lean_inc.exit19, label %22

22:                                               ; preds = %21
  tail call void @lean_inc_ref_cold(ptr noundef nonnull %2) #6
  br label %lean_inc.exit19

23:                                               ; preds = %lean_obj_tag.exit
  %24 = getelementptr inbounds nuw i8, ptr %4, i64 8
  %25 = load ptr, ptr %24, align 8, !tbaa !4
  %26 = ptrtoint ptr %25 to i64
  %27 = and i64 %26, 1
  %.not = icmp eq i64 %27, 0
  br i1 %.not, label %28, label %lean_inc.exit18

28:                                               ; preds = %23
  %.val.i29 = load i32, ptr %25, align 4, !tbaa !8
  %29 = icmp sgt i32 %.val.i29, 0
  br i1 %29, label %30, label %32, !prof !11

30:                                               ; preds = %28
  %31 = add nuw i32 %.val.i29, 1
  store i32 %31, ptr %25, align 4, !tbaa !8
  br label %lean_inc.exit18

32:                                               ; preds = %28
  %.not.i30 = icmp eq i32 %.val.i29, 0
  br i1 %.not.i30, label %lean_inc.exit18, label %33

33:                                               ; preds = %32
  tail call void @lean_inc_ref_cold(ptr noundef nonnull %25) #6
  br label %lean_inc.exit18

lean_inc.exit18:                                  ; preds = %33, %32, %30, %23
  br i1 %.not.i26, label %34, label %lean_dec.exit21

34:                                               ; preds = %lean_inc.exit18
  %35 = load i32, ptr %4, align 4, !tbaa !8
  %36 = icmp sgt i32 %35, 1
  br i1 %36, label %37, label %39, !prof !11

37:                                               ; preds = %34
  %38 = add nsw i32 %35, -1
  store i32 %38, ptr %4, align 4, !tbaa !8
  br label %lean_dec.exit21

39:                                               ; preds = %34
  %.not.i = icmp eq i32 %35, 0
  br i1 %.not.i, label %lean_dec.exit21, label %40

40:                                               ; preds = %39
  tail call void @lean_dec_ref_cold(ptr noundef nonnull %4) #6
  br label %lean_dec.exit21

lean_dec.exit21:                                  ; preds = %40, %39, %37, %lean_inc.exit18
  br i1 %.not, label %lean_obj_tag.exit35, label %lean_obj_tag.exit35.thread

lean_obj_tag.exit35:                              ; preds = %lean_dec.exit21
  %41 = getelementptr i8, ptr %25, i64 4
  %.val.i34 = load i32, ptr %41, align 4
  %.mask = and i32 %.val.i34, -16777216
  %42 = icmp eq i32 %.mask, 83886080
  br i1 %42, label %45, label %63

lean_obj_tag.exit35.thread:                       ; preds = %lean_dec.exit21
  %43 = and i64 %26, 8589934590
  %44 = icmp eq i64 %43, 10
  br i1 %44, label %45, label %lean_dec.exit

45:                                               ; preds = %lean_obj_tag.exit35.thread, %lean_obj_tag.exit35
  %46 = getelementptr inbounds nuw i8, ptr %25, i64 8
  %47 = load ptr, ptr %46, align 8, !tbaa !4
  %48 = ptrtoint ptr %47 to i64
  %49 = and i64 %48, 1
  %.not44 = icmp eq i64 %49, 0
  br i1 %.not44, label %50, label %lean_inc.exit17

50:                                               ; preds = %45
  %.val.i36 = load i32, ptr %47, align 4, !tbaa !8
  %51 = icmp sgt i32 %.val.i36, 0
  br i1 %51, label %52, label %54, !prof !11

52:                                               ; preds = %50
  %53 = add nuw i32 %.val.i36, 1
  store i32 %53, ptr %47, align 4, !tbaa !8
  br label %lean_inc.exit17

54:                                               ; preds = %50
  %.not.i37 = icmp eq i32 %.val.i36, 0
  br i1 %.not.i37, label %lean_inc.exit17, label %55

55:                                               ; preds = %54
  tail call void @lean_inc_ref_cold(ptr noundef nonnull %47) #6
  br label %lean_inc.exit17

lean_inc.exit17:                                  ; preds = %55, %54, %52, %45
  br i1 %.not, label %56, label %lean_inc.exit19

56:                                               ; preds = %lean_inc.exit17
  %57 = load i32, ptr %25, align 4, !tbaa !8
  %58 = icmp sgt i32 %57, 1
  br i1 %58, label %59, label %61, !prof !11

59:                                               ; preds = %56
  %60 = add nsw i32 %57, -1
  store i32 %60, ptr %25, align 4, !tbaa !8
  br label %lean_inc.exit19

61:                                               ; preds = %56
  %.not.i22 = icmp eq i32 %57, 0
  br i1 %.not.i22, label %lean_inc.exit19, label %62

62:                                               ; preds = %61
  tail call void @lean_dec_ref_cold(ptr noundef nonnull %25) #6
  br label %lean_inc.exit19

63:                                               ; preds = %lean_obj_tag.exit35
  %64 = load i32, ptr %25, align 4, !tbaa !8
  %65 = icmp sgt i32 %64, 1
  br i1 %65, label %66, label %68, !prof !11

66:                                               ; preds = %63
  %67 = add nsw i32 %64, -1
  store i32 %67, ptr %25, align 4, !tbaa !8
  br label %lean_dec.exit

68:                                               ; preds = %63
  %.not.i24 = icmp eq i32 %64, 0
  br i1 %.not.i24, label %lean_dec.exit, label %69

69:                                               ; preds = %68
  tail call void @lean_dec_ref_cold(ptr noundef nonnull %25) #6
  br label %lean_dec.exit

lean_dec.exit:                                    ; preds = %lean_obj_tag.exit35.thread, %69, %68, %66
  %70 = ptrtoint ptr %2 to i64
  %71 = and i64 %70, 1
  %.not43 = icmp eq i64 %71, 0
  br i1 %.not43, label %72, label %lean_inc.exit19

72:                                               ; preds = %lean_dec.exit
  %.val.i39 = load i32, ptr %2, align 4, !tbaa !8
  %73 = icmp sgt i32 %.val.i39, 0
  br i1 %73, label %74, label %76, !prof !11

74:                                               ; preds = %72
  %75 = add nuw i32 %.val.i39, 1
  store i32 %75, ptr %2, align 4, !tbaa !8
  br label %lean_inc.exit19

76:                                               ; preds = %72
  %.not.i40 = icmp eq i32 %.val.i39, 0
  br i1 %.not.i40, label %lean_inc.exit19, label %77

77:                                               ; preds = %76
  tail call void @lean_inc_ref_cold(ptr noundef nonnull %2) #6
  br label %lean_inc.exit19

lean_inc.exit19:                                  ; preds = %lean_dec.exit, %74, %76, %77, %lean_inc.exit17, %59, %61, %62, %14, %19, %21, %22
  %.0 = phi ptr [ %2, %22 ], [ %2, %21 ], [ %2, %19 ], [ %2, %14 ], [ %47, %62 ], [ %47, %61 ], [ %47, %59 ], [ %47, %lean_inc.exit17 ], [ %2, %77 ], [ %2, %76 ], [ %2, %74 ], [ %2, %lean_dec.exit ]
  ret ptr %.0
}